(lp0
(I1
(lp1
(I1
I1
tp2
a(I2
I2
tp3
a(I0
I2
tp4
a(I1
I0
tp5
a(I2
I0
tp6
aNatp7
a.(lp0
(I1
(lp1
(I0
I0
tp2
a(I1
I1
tp3
a(I0
I1
tp4
a(I2
I2
tp5
a(I0
I2
tp6
aNatp7
a.(lp0
(I2
(lp1
(I1
I2
tp2
a(I0
I0
tp3
a(I2
I1
tp4
a(I1
I1
tp5
a(I0
I2
tp6
a(I2
I2
tp7
atp8
a.